ccopy_reg
_reconstructor
p0
(cgoogle.oauth2.credentials
Credentials
p1
c__builtin__
object
p2
Ntp3
Rp4
(dp5
S'_token_uri'
p6
Vhttps://oauth2.googleapis.com/token
p7
sS'_client_secret'
p8
VAAT6-GRXKa1b-nqr0wwlshlg
p9
sS'_id_token'
p10
NsS'token'
p11
Vya29.GltOBwHMitSvNHEeScTYeCICbeBCur3Yn3Hk1MBNLwQg3vaiSL33etWcdaKTF4dW_zPSQr3ajyRWbLQgtFIeVCYvEm8JCXnTC5c7JbxwMbFHWO6t7bgBjAIDxjqK
p12
sS'_refresh_token'
p13
V1/TgqUyKFYMi8TAJuPnZnKC2CmF3qrU6V4WWXXMbl2T88
p14
sS'_scopes'
p15
(lp16
S'https://www.googleapis.com/auth/spreadsheets.readonly'
p17
asS'_client_id'
p18
V520077238534-pft4bjgt8l4p3kj9kveo5s5jplifp3bg.apps.googleusercontent.com
p19
sS'expiry'
p20
cdatetime
datetime
p21
(S'\x07\xe3\x07\x17\x03\x17)\x08\xd0\xd1'
p22
tp23
Rp24
sb.